target datalayout = "e-m:e-p270:32:32-p271:32:32-p272:64:64-i64:64-i128:128-f80:128-n8:16:32:64-S128"
target triple = "x86_64-pc-linux-gnu"

%struct.SurfaceDataRasInfo = type { %struct.SurfaceDataBounds, ptr, i32, i32, i32, i32, ptr, ptr, ptr, ptr, ptr, ptr, i32, %union.anon.0 }
%struct.SurfaceDataBounds = type { i32, i32, i32, i32 }
%union.anon.0 = type { ptr, [56 x i8] }

; Function Attrs: nounwind uwtable
define hidden void @Any3ByteSetParallelogram(ptr noundef %0, i32 noundef %1, i32 noundef %2, i32 noundef %3, i32 noundef %4, i64 noundef %5, i64 noundef %6, i64 noundef %7, i64 noundef %8, i32 noundef %9, ptr noundef %10, ptr noundef %11) #0 {
  %13 = alloca ptr, align 8
  %14 = alloca i32, align 4
  %15 = alloca i32, align 4
  %16 = alloca i32, align 4
  %17 = alloca i32, align 4
  %18 = alloca i64, align 8
  %19 = alloca i64, align 8
  %20 = alloca i64, align 8
  %21 = alloca i64, align 8
  %22 = alloca i32, align 4
  %23 = alloca ptr, align 8
  %24 = alloca ptr, align 8
  %25 = alloca i8, align 1
  %26 = alloca i8, align 1
  %27 = alloca i8, align 1
  %28 = alloca i32, align 4
  %29 = alloca ptr, align 8
  %30 = alloca i32, align 4
  %31 = alloca i32, align 4
  store ptr %0, ptr %13, align 8
  store i32 %1, ptr %14, align 4
  store i32 %2, ptr %15, align 4
  store i32 %3, ptr %16, align 4
  store i32 %4, ptr %17, align 4
  store i64 %5, ptr %18, align 8
  store i64 %6, ptr %19, align 8
  store i64 %7, ptr %20, align 8
  store i64 %8, ptr %21, align 8
  store i32 %9, ptr %22, align 4
  store ptr %10, ptr %23, align 8
  store ptr %11, ptr %24, align 8
  %32 = load ptr, ptr %13, align 8
  %33 = getelementptr inbounds %struct.SurfaceDataRasInfo, ptr %32, i32 0, i32 4
  %34 = load i32, ptr %33, align 8
  store i32 %34, ptr %28, align 4
  %35 = load ptr, ptr %13, align 8
  %36 = getelementptr inbounds %struct.SurfaceDataRasInfo, ptr %35, i32 0, i32 1
  %37 = load ptr, ptr %36, align 8
  %38 = ptrtoint ptr %37 to i64
  %39 = load i32, ptr %15, align 4
  %40 = sext i32 %39 to i64
  %41 = load i32, ptr %28, align 4
  %42 = sext i32 %41 to i64
  %43 = mul nsw i64 %40, %42
  %44 = add nsw i64 %43, 0
  %45 = add nsw i64 %38, %44
  %46 = inttoptr i64 %45 to ptr
  store ptr %46, ptr %29, align 8
  br label %47

47:                                               ; preds = %12
  %48 = load i32, ptr %22, align 4
  %49 = trunc i32 %48 to i8
  store i8 %49, ptr %25, align 1
  %50 = load i32, ptr %22, align 4
  %51 = ashr i32 %50, 8
  %52 = trunc i32 %51 to i8
  store i8 %52, ptr %26, align 1
  %53 = load i32, ptr %22, align 4
  %54 = ashr i32 %53, 16
  %55 = trunc i32 %54 to i8
  store i8 %55, ptr %27, align 1
  br label %56

56:                                               ; preds = %47
  br label %57

57:                                               ; preds = %110, %56
  %58 = load i32, ptr %15, align 4
  %59 = load i32, ptr %17, align 4
  %60 = icmp slt i32 %58, %59
  br i1 %60, label %61, label %125

61:                                               ; preds = %57
  %62 = load i64, ptr %18, align 8
  %63 = ashr i64 %62, 32
  %64 = trunc i64 %63 to i32
  store i32 %64, ptr %30, align 4
  %65 = load i64, ptr %20, align 8
  %66 = ashr i64 %65, 32
  %67 = trunc i64 %66 to i32
  store i32 %67, ptr %31, align 4
  %68 = load i32, ptr %30, align 4
  %69 = load i32, ptr %14, align 4
  %70 = icmp slt i32 %68, %69
  br i1 %70, label %71, label %73

71:                                               ; preds = %61
  %72 = load i32, ptr %14, align 4
  store i32 %72, ptr %30, align 4
  br label %73

73:                                               ; preds = %71, %61
  %74 = load i32, ptr %31, align 4
  %75 = load i32, ptr %16, align 4
  %76 = icmp sgt i32 %74, %75
  br i1 %76, label %77, label %79

77:                                               ; preds = %73
  %78 = load i32, ptr %16, align 4
  store i32 %78, ptr %31, align 4
  br label %79

79:                                               ; preds = %77, %73
  br label %80

80:                                               ; preds = %107, %79
  %81 = load i32, ptr %30, align 4
  %82 = load i32, ptr %31, align 4
  %83 = icmp slt i32 %81, %82
  br i1 %83, label %84, label %110

84:                                               ; preds = %80
  br label %85

85:                                               ; preds = %84
  %86 = load i8, ptr %25, align 1
  %87 = load ptr, ptr %29, align 8
  %88 = load i32, ptr %30, align 4
  %89 = mul nsw i32 3, %88
  %90 = add nsw i32 %89, 0
  %91 = sext i32 %90 to i64
  %92 = getelementptr inbounds i8, ptr %87, i64 %91
  store i8 %86, ptr %92, align 1
  %93 = load i8, ptr %26, align 1
  %94 = load ptr, ptr %29, align 8
  %95 = load i32, ptr %30, align 4
  %96 = mul nsw i32 3, %95
  %97 = add nsw i32 %96, 1
  %98 = sext i32 %97 to i64
  %99 = getelementptr inbounds i8, ptr %94, i64 %98
  store i8 %93, ptr %99, align 1
  %100 = load i8, ptr %27, align 1
  %101 = load ptr, ptr %29, align 8
  %102 = load i32, ptr %30, align 4
  %103 = mul nsw i32 3, %102
  %104 = add nsw i32 %103, 2
  %105 = sext i32 %104 to i64
  %106 = getelementptr inbounds i8, ptr %101, i64 %105
  store i8 %100, ptr %106, align 1
  br label %107

107:                                              ; preds = %85
  %108 = load i32, ptr %30, align 4
  %109 = add nsw i32 %108, 1
  store i32 %109, ptr %30, align 4
  br label %80, !llvm.loop !12

110:                                              ; preds = %80
  %111 = load ptr, ptr %29, align 8
  %112 = ptrtoint ptr %111 to i64
  %113 = load i32, ptr %28, align 4
  %114 = sext i32 %113 to i64
  %115 = add nsw i64 %112, %114
  %116 = inttoptr i64 %115 to ptr
  store ptr %116, ptr %29, align 8
  %117 = load i64, ptr %19, align 8
  %118 = load i64, ptr %18, align 8
  %119 = add nsw i64 %118, %117
  store i64 %119, ptr %18, align 8
  %120 = load i64, ptr %21, align 8
  %121 = load i64, ptr %20, align 8
  %122 = add nsw i64 %121, %120
  store i64 %122, ptr %20, align 8
  %123 = load i32, ptr %15, align 4
  %124 = add nsw i32 %123, 1
  store i32 %124, ptr %15, align 4
  br label %57, !llvm.loop !13

125:                                              ; preds = %57
  ret void
}