; Function Attrs: nofree norecurse nosync nounwind memory(write, argmem: readwrite, inaccessiblemem: none) uwtable
define hidden void @Any3ByteSetParallelogram(ptr nocapture noundef readonly %0, i32 noundef %1, i32 noundef %2, i32 noundef %3, i32 noundef %4, i64 noundef %5, i64 noundef %6, i64 noundef %7, i64 noundef %8, i32 noundef %9, ptr nocapture readnone %10, ptr nocapture readnone %11) #0 {
  %13 = getelementptr inbounds i8, ptr %0, i64 32
  %14 = load i32, ptr %13, align 8
  %15 = sext i32 %14 to i64
  %16 = trunc i32 %9 to i8
  %17 = lshr i32 %9, 8
  %18 = trunc i32 %17 to i8
  %19 = lshr i32 %9, 16
  %20 = trunc i32 %19 to i8
  %21 = icmp slt i32 %2, %4
  br i1 %21, label %.lr.ph52.preheader, label %._crit_edge53

.lr.ph52.preheader:                               ; preds = %12
  %22 = sext i32 %2 to i64
  %23 = mul nsw i64 %15, %22
  %24 = getelementptr inbounds i8, ptr %0, i64 16
  %25 = load ptr, ptr %24, align 8
  %26 = ptrtoint ptr %25 to i64
  %27 = add nsw i64 %23, %26
  %28 = sext i32 %1 to i64
  br label %.lr.ph52

.lr.ph52:                                         ; preds = %.lr.ph52.preheader, %._crit_edge
  %.036.in49 = phi i64 [ %41, %._crit_edge ], [ %27, %.lr.ph52.preheader ]
  %.03748 = phi i32 [ %44, %._crit_edge ], [ %2, %.lr.ph52.preheader ]
  %.03847 = phi i64 [ %42, %._crit_edge ], [ %5, %.lr.ph52.preheader ]
  %.03946 = phi i64 [ %43, %._crit_edge ], [ %7, %.lr.ph52.preheader ]
  %29 = lshr i64 %.03847, 32
  %30 = trunc nuw i64 %29 to i32
  %.03650 = inttoptr i64 %.036.in49 to ptr
  %31 = lshr i64 %.03946, 32
  %32 = trunc nuw i64 %31 to i32
  %spec.select = tail call i32 @llvm.smax.i32(i32 %30, i32 %1)
  %.0 = tail call i32 @llvm.smin.i32(i32 %32, i32 %3)
  %33 = icmp slt i32 %spec.select, %.0
  br i1 %33, label %.lr.ph.preheader, label %._crit_edge

.lr.ph.preheader:                                 ; preds = %.lr.ph52
  %34 = ashr i64 %.03847, 32
  %smax = tail call i64 @llvm.smax.i64(i64 %28, i64 %34)
  %35 = sext i32 %.0 to i64
  br label %.lr.ph

.lr.ph:                                           ; preds = %.lr.ph.preheader, %.lr.ph
  %indvars.iv = phi i64 [ %smax, %.lr.ph.preheader ], [ %indvars.iv.next, %.lr.ph ]
  %36 = mul nsw i64 %indvars.iv, 3
  %37 = getelementptr inbounds i8, ptr %.03650, i64 %36
  store i8 %16, ptr %37, align 1
  %38 = getelementptr i8, ptr %37, i64 1
  store i8 %18, ptr %38, align 1
  %39 = getelementptr i8, ptr %37, i64 2
  store i8 %20, ptr %39, align 1
  %indvars.iv.next = add nsw i64 %indvars.iv, 1
  %40 = icmp slt i64 %indvars.iv.next, %35
  br i1 %40, label %.lr.ph, label %._crit_edge, !llvm.loop !12

._crit_edge:                                      ; preds = %.lr.ph, %.lr.ph52
  %41 = add nsw i64 %.036.in49, %15
  %42 = add nsw i64 %.03847, %6
  %43 = add nsw i64 %.03946, %8
  %44 = add nsw i32 %.03748, 1
  %exitcond.not = icmp eq i32 %44, %4
  br i1 %exitcond.not, label %._crit_edge53, label %.lr.ph52, !llvm.loop !13

._crit_edge53:                                    ; preds = %._crit_edge, %12
  ret void
}